target datalayout = "e-m:e-p270:32:32-p271:32:32-p272:64:64-i64:64-i128:128-f80:128-n8:16:32:64-S128"
target triple = "x86_64-pc-linux-gnu"

%"struct.Luau::CodeGen::X64::RegisterX64" = type { i8 }
%"class.Luau::CodeGen::UnwindBuilderWin" = type <{ %"class.Luau::CodeGen::UnwindBuilder", i64, [1024 x i8], ptr, %"class.std::vector", %"class.std::vector.0", i8, %"struct.Luau::CodeGen::X64::RegisterX64", i8, [5 x i8] }>
%"class.Luau::CodeGen::UnwindBuilder" = type { ptr }
%"class.std::vector" = type { %"struct.std::_Vector_base" }
%"struct.std::_Vector_base" = type { %"struct.std::_Vector_base<Luau::CodeGen::UnwindFunctionWin, std::allocator<Luau::CodeGen::UnwindFunctionWin>>::_Vector_impl" }
%"struct.std::_Vector_base<Luau::CodeGen::UnwindFunctionWin, std::allocator<Luau::CodeGen::UnwindFunctionWin>>::_Vector_impl" = type { %"struct.std::_Vector_base<Luau::CodeGen::UnwindFunctionWin, std::allocator<Luau::CodeGen::UnwindFunctionWin>>::_Vector_impl_data" }
%"struct.std::_Vector_base<Luau::CodeGen::UnwindFunctionWin, std::allocator<Luau::CodeGen::UnwindFunctionWin>>::_Vector_impl_data" = type { ptr, ptr, ptr }
%"class.std::vector.0" = type { %"struct.std::_Vector_base.1" }
%"struct.std::_Vector_base.1" = type { %"struct.std::_Vector_base<Luau::CodeGen::UnwindCodeWin, std::allocator<Luau::CodeGen::UnwindCodeWin>>::_Vector_impl" }
%"struct.std::_Vector_base<Luau::CodeGen::UnwindCodeWin, std::allocator<Luau::CodeGen::UnwindCodeWin>>::_Vector_impl" = type { %"struct.std::_Vector_base<Luau::CodeGen::UnwindCodeWin, std::allocator<Luau::CodeGen::UnwindCodeWin>>::_Vector_impl_data" }
%"struct.std::_Vector_base<Luau::CodeGen::UnwindCodeWin, std::allocator<Luau::CodeGen::UnwindCodeWin>>::_Vector_impl_data" = type { ptr, ptr, ptr }
%"struct.Luau::CodeGen::UnwindFunctionWin" = type { i32, i32, i32 }
%"class.__gnu_cxx::__normal_iterator.11" = type { ptr }

@_ZN4Luau7CodeGenL18kFullBlockFunctionE = internal global i32 -1, align 4

; Function Attrs: mustprogress nounwind uwtable
define linkonce_odr dso_local noundef nonnull align 8 dereferenceable(8) ptr @_ZNK9__gnu_cxx17__normal_iteratorIPKN4Luau7CodeGen17UnwindFunctionWinESt6vectorIS3_SaIS3_EEE4baseEv(ptr noundef nonnull align 8 dereferenceable(8) %0) #0 comdat align 2 {
  %2 = alloca ptr, align 8
  store ptr %0, ptr %2, align 8
  %3 = load ptr, ptr %2, align 8
  %4 = getelementptr inbounds %"class.__gnu_cxx::__normal_iterator.11", ptr %3, i32 0, i32 0
  ret ptr %4
}

; Function Attrs: mustprogress nounwind uwtable
define linkonce_odr dso_local void @_ZN9__gnu_cxx17__normal_iteratorIPKN4Luau7CodeGen17UnwindFunctionWinESt6vectorIS3_SaIS3_EEEC2ERKS5_(ptr noundef nonnull align 8 dereferenceable(8) %0, ptr noundef nonnull align 8 dereferenceable(8) %1) unnamed_addr #0 comdat align 2 {
  %3 = alloca ptr, align 8
  %4 = alloca ptr, align 8
  store ptr %0, ptr %3, align 8
  store ptr %1, ptr %4, align 8
  %5 = load ptr, ptr %3, align 8
  %6 = getelementptr inbounds %"class.__gnu_cxx::__normal_iterator.11", ptr %5, i32 0, i32 0
  %7 = load ptr, ptr %4, align 8
  %8 = load ptr, ptr %7, align 8
  store ptr %8, ptr %6, align 8
  ret void
}

; Function Attrs: mustprogress nounwind uwtable
define linkonce_odr dso_local noundef nonnull align 8 dereferenceable(8) ptr @_ZN9__gnu_cxx17__normal_iteratorIPKN4Luau7CodeGen17UnwindFunctionWinESt6vectorIS3_SaIS3_EEEppEv(ptr noundef nonnull align 8 dereferenceable(8) %0) #0 comdat align 2 {
  %2 = alloca ptr, align 8
  store ptr %0, ptr %2, align 8
  %3 = load ptr, ptr %2, align 8
  %4 = getelementptr inbounds %"class.__gnu_cxx::__normal_iterator.11", ptr %3, i32 0, i32 0
  %5 = load ptr, ptr %4, align 8
  %6 = getelementptr inbounds %"struct.Luau::CodeGen::UnwindFunctionWin", ptr %5, i32 1
  store ptr %6, ptr %4, align 8
  ret ptr %3
}

; Function Attrs: mustprogress nounwind uwtable
define linkonce_odr dso_local noundef i64 @_ZNKSt6vectorIN4Luau7CodeGen17UnwindFunctionWinESaIS2_EE4sizeEv(ptr noundef nonnull align 8 dereferenceable(24) %0) #0 comdat align 2 {
  %2 = alloca ptr, align 8
  store ptr %0, ptr %2, align 8
  %3 = load ptr, ptr %2, align 8
  %4 = getelementptr inbounds %"struct.std::_Vector_base", ptr %3, i32 0, i32 0
  %5 = getelementptr inbounds %"struct.std::_Vector_base<Luau::CodeGen::UnwindFunctionWin, std::allocator<Luau::CodeGen::UnwindFunctionWin>>::_Vector_impl_data", ptr %4, i32 0, i32 1
  %6 = load ptr, ptr %5, align 8
  %7 = getelementptr inbounds %"struct.std::_Vector_base", ptr %3, i32 0, i32 0
  %8 = getelementptr inbounds %"struct.std::_Vector_base<Luau::CodeGen::UnwindFunctionWin, std::allocator<Luau::CodeGen::UnwindFunctionWin>>::_Vector_impl_data", ptr %7, i32 0, i32 0
  %9 = load ptr, ptr %8, align 8
  %10 = ptrtoint ptr %6 to i64
  %11 = ptrtoint ptr %9 to i64
  %12 = sub i64 %10, %11
  %13 = sdiv exact i64 %12, 12
  ret i64 %13
}

; Function Attrs: mustprogress nounwind uwtable
define linkonce_odr dso_local noundef nonnull align 4 dereferenceable(12) ptr @_ZNK9__gnu_cxx17__normal_iteratorIPKN4Luau7CodeGen17UnwindFunctionWinESt6vectorIS3_SaIS3_EEEdeEv(ptr noundef nonnull align 8 dereferenceable(8) %0) #0 comdat align 2 {
  %2 = alloca ptr, align 8
  store ptr %0, ptr %2, align 8
  %3 = load ptr, ptr %2, align 8
  %4 = getelementptr inbounds %"class.__gnu_cxx::__normal_iterator.11", ptr %3, i32 0, i32 0
  %5 = load ptr, ptr %4, align 8
  ret ptr %5
}

; Function Attrs: mustprogress nounwind uwtable
define linkonce_odr dso_local noundef zeroext i1 @_ZN9__gnu_cxxneIPKN4Luau7CodeGen17UnwindFunctionWinESt6vectorIS3_SaIS3_EEEEbRKNS_17__normal_iteratorIT_T0_EESE_(ptr noundef nonnull align 8 dereferenceable(8) %0, ptr noundef nonnull align 8 dereferenceable(8) %1) #0 comdat {
  %3 = alloca ptr, align 8
  %4 = alloca ptr, align 8
  store ptr %0, ptr %3, align 8
  store ptr %1, ptr %4, align 8
  %5 = load ptr, ptr %3, align 8
  %6 = call noundef nonnull align 8 dereferenceable(8) ptr @_ZNK9__gnu_cxx17__normal_iteratorIPKN4Luau7CodeGen17UnwindFunctionWinESt6vectorIS3_SaIS3_EEE4baseEv(ptr noundef nonnull align 8 dereferenceable(8) %5) #8
  %7 = load ptr, ptr %6, align 8
  %8 = load ptr, ptr %4, align 8
  %9 = call noundef nonnull align 8 dereferenceable(8) ptr @_ZNK9__gnu_cxx17__normal_iteratorIPKN4Luau7CodeGen17UnwindFunctionWinESt6vectorIS3_SaIS3_EEE4baseEv(ptr noundef nonnull align 8 dereferenceable(8) %8) #8
  %10 = load ptr, ptr %9, align 8
  %11 = icmp ne ptr %7, %10
  ret i1 %11
}

; Function Attrs: mustprogress nounwind uwtable
define linkonce_odr dso_local ptr @_ZNKSt6vectorIN4Luau7CodeGen17UnwindFunctionWinESaIS2_EE3endEv(ptr noundef nonnull align 8 dereferenceable(24) %0) #0 comdat align 2 {
  %2 = alloca %"class.__gnu_cxx::__normal_iterator.11", align 8
  %3 = alloca ptr, align 8
  store ptr %0, ptr %3, align 8
  %4 = load ptr, ptr %3, align 8
  %5 = getelementptr inbounds %"struct.std::_Vector_base", ptr %4, i32 0, i32 0
  %6 = getelementptr inbounds %"struct.std::_Vector_base<Luau::CodeGen::UnwindFunctionWin, std::allocator<Luau::CodeGen::UnwindFunctionWin>>::_Vector_impl_data", ptr %5, i32 0, i32 1
  call void @_ZN9__gnu_cxx17__normal_iteratorIPKN4Luau7CodeGen17UnwindFunctionWinESt6vectorIS3_SaIS3_EEEC2ERKS5_(ptr noundef nonnull align 8 dereferenceable(8) %2, ptr noundef nonnull align 8 dereferenceable(8) %6) #8
  %7 = getelementptr inbounds %"class.__gnu_cxx::__normal_iterator.11", ptr %2, i32 0, i32 0
  %8 = load ptr, ptr %7, align 8
  ret ptr %8
}

; Function Attrs: mustprogress nounwind uwtable
define linkonce_odr dso_local ptr @_ZNKSt6vectorIN4Luau7CodeGen17UnwindFunctionWinESaIS2_EE5beginEv(ptr noundef nonnull align 8 dereferenceable(24) %0) #0 comdat align 2 {
  %2 = alloca %"class.__gnu_cxx::__normal_iterator.11", align 8
  %3 = alloca ptr, align 8
  store ptr %0, ptr %3, align 8
  %4 = load ptr, ptr %3, align 8
  %5 = getelementptr inbounds %"struct.std::_Vector_base", ptr %4, i32 0, i32 0
  %6 = getelementptr inbounds %"struct.std::_Vector_base<Luau::CodeGen::UnwindFunctionWin, std::allocator<Luau::CodeGen::UnwindFunctionWin>>::_Vector_impl_data", ptr %5, i32 0, i32 0
  call void @_ZN9__gnu_cxx17__normal_iteratorIPKN4Luau7CodeGen17UnwindFunctionWinESt6vectorIS3_SaIS3_EEEC2ERKS5_(ptr noundef nonnull align 8 dereferenceable(8) %2, ptr noundef nonnull align 8 dereferenceable(8) %6) #8
  %7 = getelementptr inbounds %"class.__gnu_cxx::__normal_iterator.11", ptr %2, i32 0, i32 0
  %8 = load ptr, ptr %7, align 8
  ret ptr %8
}

; Function Attrs: mustprogress nounwind uwtable
define dso_local noundef i64 @_ZNK4Luau7CodeGen16UnwindBuilderWin8finalizeEPcmPvm(ptr noundef nonnull align 8 dereferenceable(1099) %0, ptr noundef %1, i64 noundef %2, ptr noundef %3, i64 noundef %4) unnamed_addr #0 align 2 {
  %6 = alloca ptr, align 8
  %7 = alloca ptr, align 8
  %8 = alloca i64, align 8
  %9 = alloca ptr, align 8
  %10 = alloca i64, align 8
  %11 = alloca ptr, align 8
  %12 = alloca %"class.__gnu_cxx::__normal_iterator.11", align 8
  %13 = alloca %"class.__gnu_cxx::__normal_iterator.11", align 8
  %14 = alloca %"struct.Luau::CodeGen::UnwindFunctionWin", align 4
  store ptr %0, ptr %6, align 8
  store ptr %1, ptr %7, align 8
  store i64 %2, ptr %8, align 8
  store ptr %3, ptr %9, align 8
  store i64 %4, ptr %10, align 8
  %15 = load ptr, ptr %6, align 8
  %16 = getelementptr inbounds %"class.Luau::CodeGen::UnwindBuilderWin", ptr %15, i32 0, i32 4
  store ptr %16, ptr %11, align 8
  %17 = load ptr, ptr %11, align 8
  %18 = call ptr @_ZNKSt6vectorIN4Luau7CodeGen17UnwindFunctionWinESaIS2_EE5beginEv(ptr noundef nonnull align 8 dereferenceable(24) %17) #8
  %19 = getelementptr inbounds %"class.__gnu_cxx::__normal_iterator.11", ptr %12, i32 0, i32 0
  store ptr %18, ptr %19, align 8
  %20 = load ptr, ptr %11, align 8
  %21 = call ptr @_ZNKSt6vectorIN4Luau7CodeGen17UnwindFunctionWinESaIS2_EE3endEv(ptr noundef nonnull align 8 dereferenceable(24) %20) #8
  %22 = getelementptr inbounds %"class.__gnu_cxx::__normal_iterator.11", ptr %13, i32 0, i32 0
  store ptr %21, ptr %22, align 8
  br label %23

23:                                               ; preds = %57, %5
  %24 = call noundef zeroext i1 @_ZN9__gnu_cxxneIPKN4Luau7CodeGen17UnwindFunctionWinESt6vectorIS3_SaIS3_EEEEbRKNS_17__normal_iteratorIT_T0_EESE_(ptr noundef nonnull align 8 dereferenceable(8) %12, ptr noundef nonnull align 8 dereferenceable(8) %13) #8
  br i1 %24, label %25, label %59

25:                                               ; preds = %23
  %26 = call noundef nonnull align 4 dereferenceable(12) ptr @_ZNK9__gnu_cxx17__normal_iteratorIPKN4Luau7CodeGen17UnwindFunctionWinESt6vectorIS3_SaIS3_EEEdeEv(ptr noundef nonnull align 8 dereferenceable(8) %12) #8
  call void @llvm.memcpy.p0.p0.i64(ptr align 4 %14, ptr align 4 %26, i64 12, i1 false)
  %27 = load i64, ptr %8, align 8
  %28 = trunc i64 %27 to i32
  %29 = getelementptr inbounds %"struct.Luau::CodeGen::UnwindFunctionWin", ptr %14, i32 0, i32 0
  %30 = load i32, ptr %29, align 4
  %31 = add i32 %30, %28
  store i32 %31, ptr %29, align 4
  %32 = getelementptr inbounds %"struct.Luau::CodeGen::UnwindFunctionWin", ptr %14, i32 0, i32 1
  %33 = load i32, ptr %32, align 4
  %34 = load i32, ptr @_ZN4Luau7CodeGenL18kFullBlockFunctionE, align 4
  %35 = icmp eq i32 %33, %34
  br i1 %35, label %36, label %40

36:                                               ; preds = %25
  %37 = load i64, ptr %10, align 8
  %38 = trunc i64 %37 to i32
  %39 = getelementptr inbounds %"struct.Luau::CodeGen::UnwindFunctionWin", ptr %14, i32 0, i32 1
  store i32 %38, ptr %39, align 4
  br label %46

40:                                               ; preds = %25
  %41 = load i64, ptr %8, align 8
  %42 = trunc i64 %41 to i32
  %43 = getelementptr inbounds %"struct.Luau::CodeGen::UnwindFunctionWin", ptr %14, i32 0, i32 1
  %44 = load i32, ptr %43, align 4
  %45 = add i32 %44, %42
  store i32 %45, ptr %43, align 4
  br label %46

46:                                               ; preds = %40, %36
  %47 = getelementptr inbounds %"class.Luau::CodeGen::UnwindBuilderWin", ptr %15, i32 0, i32 4
  %48 = call noundef i64 @_ZNKSt6vectorIN4Luau7CodeGen17UnwindFunctionWinESaIS2_EE4sizeEv(ptr noundef nonnull align 8 dereferenceable(24) %47) #8
  %49 = mul i64 12, %48
  %50 = trunc i64 %49 to i32
  %51 = getelementptr inbounds %"struct.Luau::CodeGen::UnwindFunctionWin", ptr %14, i32 0, i32 2
  %52 = load i32, ptr %51, align 4
  %53 = add i32 %52, %50
  store i32 %53, ptr %51, align 4
  %54 = load ptr, ptr %7, align 8
  call void @llvm.memcpy.p0.p0.i64(ptr align 1 %54, ptr align 4 %14, i64 12, i1 false)
  %55 = load ptr, ptr %7, align 8
  %56 = getelementptr inbounds i8, ptr %55, i64 12
  store ptr %56, ptr %7, align 8
  br label %57

57:                                               ; preds = %46
  %58 = call noundef nonnull align 8 dereferenceable(8) ptr @_ZN9__gnu_cxx17__normal_iteratorIPKN4Luau7CodeGen17UnwindFunctionWinESt6vectorIS3_SaIS3_EEEppEv(ptr noundef nonnull align 8 dereferenceable(8) %12) #8
  br label %23

59:                                               ; preds = %23
  %60 = load ptr, ptr %7, align 8
  %61 = getelementptr inbounds %"class.Luau::CodeGen::UnwindBuilderWin", ptr %15, i32 0, i32 2
  %62 = getelementptr inbounds [1024 x i8], ptr %61, i64 0, i64 0
  %63 = getelementptr inbounds %"class.Luau::CodeGen::UnwindBuilderWin", ptr %15, i32 0, i32 3
  %64 = load ptr, ptr %63, align 8
  %65 = getelementptr inbounds %"class.Luau::CodeGen::UnwindBuilderWin", ptr %15, i32 0, i32 2
  %66 = getelementptr inbounds [1024 x i8], ptr %65, i64 0, i64 0
  %67 = ptrtoint ptr %64 to i64
  %68 = ptrtoint ptr %66 to i64
  %69 = sub i64 %67, %68
  call void @llvm.memcpy.p0.p0.i64(ptr align 1 %60, ptr align 8 %62, i64 %69, i1 false)
  %70 = getelementptr inbounds %"class.Luau::CodeGen::UnwindBuilderWin", ptr %15, i32 0, i32 4
  %71 = call noundef i64 @_ZNKSt6vectorIN4Luau7CodeGen17UnwindFunctionWinESaIS2_EE4sizeEv(ptr noundef nonnull align 8 dereferenceable(24) %70) #8
  ret i64 %71
}