; Function Attrs: mustprogress nofree norecurse nosync nounwind memory(readwrite, inaccessiblemem: none) uwtable
define dso_local noundef i64 @_ZNK4Luau7CodeGen16UnwindBuilderWin8finalizeEPcmPvm(ptr noundef nonnull align 8 dereferenceable(1099) %0, ptr nocapture noundef writeonly %1, i64 noundef %2, ptr nocapture readnone %3, i64 noundef %4) unnamed_addr #5 align 2 {
  %6 = getelementptr inbounds i8, ptr %0, i64 1048
  %7 = load ptr, ptr %6, align 8
  %8 = getelementptr inbounds i8, ptr %0, i64 1056
  %9 = load ptr, ptr %8, align 8
  %.not17 = icmp eq ptr %7, %9
  br i1 %.not17, label %._crit_edge, label %.lr.ph

.lr.ph:                                           ; preds = %5
  %10 = trunc i64 %2 to i32
  %11 = trunc i64 %4 to i32
  br label %12

12:                                               ; preds = %.lr.ph, %12
  %.019 = phi ptr [ %1, %.lr.ph ], [ %25, %12 ]
  %.sroa.014.018 = phi ptr [ %7, %.lr.ph ], [ %26, %12 ]
  %.sroa.0.0.copyload = load i32, ptr %.sroa.014.018, align 4
  %.sroa.4.0..sroa_idx = getelementptr inbounds i8, ptr %.sroa.014.018, i64 4
  %.sroa.4.0.copyload = load i32, ptr %.sroa.4.0..sroa_idx, align 4
  %.sroa.8.0..sroa_idx = getelementptr inbounds i8, ptr %.sroa.014.018, i64 8
  %.sroa.8.0.copyload = load i32, ptr %.sroa.8.0..sroa_idx, align 4
  %13 = add i32 %.sroa.0.0.copyload, %10
  %14 = icmp eq i32 %.sroa.4.0.copyload, -1
  %15 = add i32 %.sroa.4.0.copyload, %10
  %.sroa.4.0 = select i1 %14, i32 %11, i32 %15
  %16 = load ptr, ptr %8, align 8
  %17 = load ptr, ptr %6, align 8
  %18 = ptrtoint ptr %16 to i64
  %19 = ptrtoint ptr %17 to i64
  %20 = sub i64 %18, %19
  %21 = sdiv exact i64 %20, 12
  %22 = trunc i64 %21 to i32
  %23 = mul i32 %22, 12
  %24 = add i32 %23, %.sroa.8.0.copyload
  store i32 %13, ptr %.019, align 1
  %.sroa.4.0..sroa_idx2 = getelementptr inbounds i8, ptr %.019, i64 4
  store i32 %.sroa.4.0, ptr %.sroa.4.0..sroa_idx2, align 1
  %.sroa.8.0..sroa_idx5 = getelementptr inbounds i8, ptr %.019, i64 8
  store i32 %24, ptr %.sroa.8.0..sroa_idx5, align 1
  %25 = getelementptr inbounds i8, ptr %.019, i64 12
  %26 = getelementptr inbounds i8, ptr %.sroa.014.018, i64 12
  %.not = icmp eq ptr %26, %9
  br i1 %.not, label %._crit_edge, label %12

._crit_edge:                                      ; preds = %12, %5
  %.0.lcssa = phi ptr [ %1, %5 ], [ %25, %12 ]
  %27 = getelementptr inbounds i8, ptr %0, i64 16
  %28 = getelementptr inbounds i8, ptr %0, i64 1040
  %29 = load ptr, ptr %28, align 8
  %30 = ptrtoint ptr %29 to i64
  %31 = ptrtoint ptr %27 to i64
  %32 = sub i64 %30, %31
  tail call void @llvm.memcpy.p0.p0.i64(ptr align 1 %.0.lcssa, ptr nonnull align 8 %27, i64 %32, i1 false)
  %33 = load ptr, ptr %8, align 8
  %34 = load ptr, ptr %6, align 8
  %35 = ptrtoint ptr %33 to i64
  %36 = ptrtoint ptr %34 to i64
  %37 = sub i64 %35, %36
  %38 = sdiv exact i64 %37, 12
  ret i64 %38
}